target datalayout = "e-m:e-p270:32:32-p271:32:32-p272:64:64-i64:64-i128:128-f80:128-n8:16:32:64-S128"
target triple = "x86_64-unknown-linux-gnu"

%"class.std::__cxx11::basic_string" = type { %"struct.std::__cxx11::basic_string<char>::_Alloc_hider", i64, %union.anon }
%"struct.std::__cxx11::basic_string<char>::_Alloc_hider" = type { ptr }
%union.anon = type { i64, [8 x i8] }
%"class.std::allocator" = type { i8 }
%struct.hs_expr_ext = type { i64, i64, i64, i64, i32, i32 }

@_ZTIN3ue212CompileErrorE = external constant ptr
@.str.26 = private unnamed_addr constant [30 x i8] c"Invalid hs_expr_ext flag set.\00", align 1
@.str.27 = private unnamed_addr constant [69 x i8] c"In hs_expr_ext, min_offset must be less than or equal to max_offset.\00", align 1
@.str.28 = private unnamed_addr constant [69 x i8] c"In hs_expr_ext, min_length must be less than or equal to max_offset.\00", align 1
@.str.29 = private unnamed_addr constant [69 x i8] c"In hs_expr_ext, cannot have both edit distance and Hamming distance.\00", align 1

; Function Attrs: mustprogress uwtable
define internal void @_ZN3ue2L11validateExtERK11hs_expr_ext(ptr noundef nonnull align 8 dereferenceable(40) %ext) #3 personality ptr @__gxx_personality_v0 {
entry:
  %ext.addr = alloca ptr, align 8
  %ref.tmp = alloca %"class.std::__cxx11::basic_string", align 8
  %ref.tmp1 = alloca %"class.std::allocator", align 1
  %exn.slot = alloca ptr, align 8
  %ehselector.slot = alloca i32, align 4
  %cleanup.isactive = alloca i1, align 1
  %ref.tmp14 = alloca %"class.std::__cxx11::basic_string", align 8
  %ref.tmp15 = alloca %"class.std::allocator", align 1
  %cleanup.isactive20 = alloca i1, align 1
  %ref.tmp40 = alloca %"class.std::__cxx11::basic_string", align 8
  %ref.tmp41 = alloca %"class.std::allocator", align 1
  %cleanup.isactive46 = alloca i1, align 1
  %ref.tmp63 = alloca %"class.std::__cxx11::basic_string", align 8
  %ref.tmp64 = alloca %"class.std::allocator", align 1
  %cleanup.isactive69 = alloca i1, align 1
  store ptr %ext, ptr %ext.addr, align 8
  %0 = load ptr, ptr %ext.addr, align 8
  %flags = getelementptr inbounds %struct.hs_expr_ext, ptr %0, i32 0, i32 0
  %1 = load i64, ptr %flags, align 8
  %and = and i64 %1, -32
  %tobool = icmp ne i64 %and, 0
  br i1 %tobool, label %if.then, label %if.end

if.then:                                          ; preds = %entry
  store i1 true, ptr %cleanup.isactive, align 1
  %exception = call ptr @__cxa_allocate_exception(i64 48) #2
  call void @_ZNSaIcEC1Ev(ptr noundef nonnull align 1 dereferenceable(1) %ref.tmp1) #2
  invoke void @_ZNSt7__cxx1112basic_stringIcSt11char_traitsIcESaIcEEC2IS3_EEPKcRKS3_(ptr noundef nonnull align 8 dereferenceable(32) %ref.tmp, ptr noundef @.str.26, ptr noundef nonnull align 1 dereferenceable(1) %ref.tmp1)
          to label %invoke.cont unwind label %lpad

invoke.cont:                                      ; preds = %if.then
  invoke void @_ZN3ue212CompileErrorC1ERKNSt7__cxx1112basic_stringIcSt11char_traitsIcESaIcEEE(ptr noundef nonnull align 8 dereferenceable(48) %exception, ptr noundef nonnull align 8 dereferenceable(32) %ref.tmp)
          to label %invoke.cont3 unwind label %lpad2

invoke.cont3:                                     ; preds = %invoke.cont
  store i1 false, ptr %cleanup.isactive, align 1
  invoke void @__cxa_throw(ptr %exception, ptr @_ZTIN3ue212CompileErrorE, ptr @_ZN3ue212CompileErrorD1Ev) #14
          to label %unreachable unwind label %lpad2

lpad:                                             ; preds = %if.then
  %2 = landingpad { ptr, i32 }
          cleanup
  %3 = extractvalue { ptr, i32 } %2, 0
  store ptr %3, ptr %exn.slot, align 8
  %4 = extractvalue { ptr, i32 } %2, 1
  store i32 %4, ptr %ehselector.slot, align 4
  br label %ehcleanup

lpad2:                                            ; preds = %invoke.cont3, %invoke.cont
  %5 = landingpad { ptr, i32 }
          cleanup
  %6 = extractvalue { ptr, i32 } %5, 0
  store ptr %6, ptr %exn.slot, align 8
  %7 = extractvalue { ptr, i32 } %5, 1
  store i32 %7, ptr %ehselector.slot, align 4
  call void @_ZNSt7__cxx1112basic_stringIcSt11char_traitsIcESaIcEED1Ev(ptr noundef nonnull align 8 dereferenceable(32) %ref.tmp) #2
  br label %ehcleanup

ehcleanup:                                        ; preds = %lpad2, %lpad
  call void @_ZNSaIcED1Ev(ptr noundef nonnull align 1 dereferenceable(1) %ref.tmp1) #2
  %cleanup.is_active = load i1, ptr %cleanup.isactive, align 1
  br i1 %cleanup.is_active, label %cleanup.action, label %cleanup.done

cleanup.action:                                   ; preds = %ehcleanup
  call void @__cxa_free_exception(ptr %exception) #2
  br label %cleanup.done

cleanup.done:                                     ; preds = %cleanup.action, %ehcleanup
  br label %eh.resume

if.end:                                           ; preds = %entry
  %8 = load ptr, ptr %ext.addr, align 8
  %flags5 = getelementptr inbounds %struct.hs_expr_ext, ptr %8, i32 0, i32 0
  %9 = load i64, ptr %flags5, align 8
  %and6 = and i64 %9, 1
  %tobool7 = icmp ne i64 %and6, 0
  br i1 %tobool7, label %land.lhs.true, label %if.end27

land.lhs.true:                                    ; preds = %if.end
  %10 = load ptr, ptr %ext.addr, align 8
  %flags8 = getelementptr inbounds %struct.hs_expr_ext, ptr %10, i32 0, i32 0
  %11 = load i64, ptr %flags8, align 8
  %and9 = and i64 %11, 2
  %tobool10 = icmp ne i64 %and9, 0
  br i1 %tobool10, label %land.lhs.true11, label %if.end27

land.lhs.true11:                                  ; preds = %land.lhs.true
  %12 = load ptr, ptr %ext.addr, align 8
  %min_offset = getelementptr inbounds %struct.hs_expr_ext, ptr %12, i32 0, i32 1
  %13 = load i64, ptr %min_offset, align 8
  %14 = load ptr, ptr %ext.addr, align 8
  %max_offset = getelementptr inbounds %struct.hs_expr_ext, ptr %14, i32 0, i32 2
  %15 = load i64, ptr %max_offset, align 8
  %cmp = icmp ugt i64 %13, %15
  br i1 %cmp, label %if.then12, label %if.end27

if.then12:                                        ; preds = %land.lhs.true11
  store i1 true, ptr %cleanup.isactive20, align 1
  %exception13 = call ptr @__cxa_allocate_exception(i64 48) #2
  call void @_ZNSaIcEC1Ev(ptr noundef nonnull align 1 dereferenceable(1) %ref.tmp15) #2
  invoke void @_ZNSt7__cxx1112basic_stringIcSt11char_traitsIcESaIcEEC2IS3_EEPKcRKS3_(ptr noundef nonnull align 8 dereferenceable(32) %ref.tmp14, ptr noundef @.str.27, ptr noundef nonnull align 1 dereferenceable(1) %ref.tmp15)
          to label %invoke.cont17 unwind label %lpad16

invoke.cont17:                                    ; preds = %if.then12
  invoke void @_ZN3ue212CompileErrorC1ERKNSt7__cxx1112basic_stringIcSt11char_traitsIcESaIcEEE(ptr noundef nonnull align 8 dereferenceable(48) %exception13, ptr noundef nonnull align 8 dereferenceable(32) %ref.tmp14)
          to label %invoke.cont19 unwind label %lpad18

invoke.cont19:                                    ; preds = %invoke.cont17
  store i1 false, ptr %cleanup.isactive20, align 1
  invoke void @__cxa_throw(ptr %exception13, ptr @_ZTIN3ue212CompileErrorE, ptr @_ZN3ue212CompileErrorD1Ev) #14
          to label %unreachable unwind label %lpad18

lpad16:                                           ; preds = %if.then12
  %16 = landingpad { ptr, i32 }
          cleanup
  %17 = extractvalue { ptr, i32 } %16, 0
  store ptr %17, ptr %exn.slot, align 8
  %18 = extractvalue { ptr, i32 } %16, 1
  store i32 %18, ptr %ehselector.slot, align 4
  br label %ehcleanup22

lpad18:                                           ; preds = %invoke.cont19, %invoke.cont17
  %19 = landingpad { ptr, i32 }
          cleanup
  %20 = extractvalue { ptr, i32 } %19, 0
  store ptr %20, ptr %exn.slot, align 8
  %21 = extractvalue { ptr, i32 } %19, 1
  store i32 %21, ptr %ehselector.slot, align 4
  call void @_ZNSt7__cxx1112basic_stringIcSt11char_traitsIcESaIcEED1Ev(ptr noundef nonnull align 8 dereferenceable(32) %ref.tmp14) #2
  br label %ehcleanup22

ehcleanup22:                                      ; preds = %lpad18, %lpad16
  call void @_ZNSaIcED1Ev(ptr noundef nonnull align 1 dereferenceable(1) %ref.tmp15) #2
  %cleanup.is_active24 = load i1, ptr %cleanup.isactive20, align 1
  br i1 %cleanup.is_active24, label %cleanup.action25, label %cleanup.done26

cleanup.action25:                                 ; preds = %ehcleanup22
  call void @__cxa_free_exception(ptr %exception13) #2
  br label %cleanup.done26

cleanup.done26:                                   ; preds = %cleanup.action25, %ehcleanup22
  br label %eh.resume

if.end27:                                         ; preds = %land.lhs.true11, %land.lhs.true, %if.end
  %22 = load ptr, ptr %ext.addr, align 8
  %flags28 = getelementptr inbounds %struct.hs_expr_ext, ptr %22, i32 0, i32 0
  %23 = load i64, ptr %flags28, align 8
  %and29 = and i64 %23, 4
  %tobool30 = icmp ne i64 %and29, 0
  br i1 %tobool30, label %land.lhs.true31, label %if.end53

land.lhs.true31:                                  ; preds = %if.end27
  %24 = load ptr, ptr %ext.addr, align 8
  %flags32 = getelementptr inbounds %struct.hs_expr_ext, ptr %24, i32 0, i32 0
  %25 = load i64, ptr %flags32, align 8
  %and33 = and i64 %25, 2
  %tobool34 = icmp ne i64 %and33, 0
  br i1 %tobool34, label %land.lhs.true35, label %if.end53

land.lhs.true35:                                  ; preds = %land.lhs.true31
  %26 = load ptr, ptr %ext.addr, align 8
  %min_length = getelementptr inbounds %struct.hs_expr_ext, ptr %26, i32 0, i32 3
  %27 = load i64, ptr %min_length, align 8
  %28 = load ptr, ptr %ext.addr, align 8
  %max_offset36 = getelementptr inbounds %struct.hs_expr_ext, ptr %28, i32 0, i32 2
  %29 = load i64, ptr %max_offset36, align 8
  %cmp37 = icmp ugt i64 %27, %29
  br i1 %cmp37, label %if.then38, label %if.end53

if.then38:                                        ; preds = %land.lhs.true35
  store i1 true, ptr %cleanup.isactive46, align 1
  %exception39 = call ptr @__cxa_allocate_exception(i64 48) #2
  call void @_ZNSaIcEC1Ev(ptr noundef nonnull align 1 dereferenceable(1) %ref.tmp41) #2
  invoke void @_ZNSt7__cxx1112basic_stringIcSt11char_traitsIcESaIcEEC2IS3_EEPKcRKS3_(ptr noundef nonnull align 8 dereferenceable(32) %ref.tmp40, ptr noundef @.str.28, ptr noundef nonnull align 1 dereferenceable(1) %ref.tmp41)
          to label %invoke.cont43 unwind label %lpad42

invoke.cont43:                                    ; preds = %if.then38
  invoke void @_ZN3ue212CompileErrorC1ERKNSt7__cxx1112basic_stringIcSt11char_traitsIcESaIcEEE(ptr noundef nonnull align 8 dereferenceable(48) %exception39, ptr noundef nonnull align 8 dereferenceable(32) %ref.tmp40)
          to label %invoke.cont45 unwind label %lpad44

invoke.cont45:                                    ; preds = %invoke.cont43
  store i1 false, ptr %cleanup.isactive46, align 1
  invoke void @__cxa_throw(ptr %exception39, ptr @_ZTIN3ue212CompileErrorE, ptr @_ZN3ue212CompileErrorD1Ev) #14
          to label %unreachable unwind label %lpad44

lpad42:                                           ; preds = %if.then38
  %30 = landingpad { ptr, i32 }
          cleanup
  %31 = extractvalue { ptr, i32 } %30, 0
  store ptr %31, ptr %exn.slot, align 8
  %32 = extractvalue { ptr, i32 } %30, 1
  store i32 %32, ptr %ehselector.slot, align 4
  br label %ehcleanup48

lpad44:                                           ; preds = %invoke.cont45, %invoke.cont43
  %33 = landingpad { ptr, i32 }
          cleanup
  %34 = extractvalue { ptr, i32 } %33, 0
  store ptr %34, ptr %exn.slot, align 8
  %35 = extractvalue { ptr, i32 } %33, 1
  store i32 %35, ptr %ehselector.slot, align 4
  call void @_ZNSt7__cxx1112basic_stringIcSt11char_traitsIcESaIcEED1Ev(ptr noundef nonnull align 8 dereferenceable(32) %ref.tmp40) #2
  br label %ehcleanup48

ehcleanup48:                                      ; preds = %lpad44, %lpad42
  call void @_ZNSaIcED1Ev(ptr noundef nonnull align 1 dereferenceable(1) %ref.tmp41) #2
  %cleanup.is_active50 = load i1, ptr %cleanup.isactive46, align 1
  br i1 %cleanup.is_active50, label %cleanup.action51, label %cleanup.done52

cleanup.action51:                                 ; preds = %ehcleanup48
  call void @__cxa_free_exception(ptr %exception39) #2
  br label %cleanup.done52

cleanup.done52:                                   ; preds = %cleanup.action51, %ehcleanup48
  br label %eh.resume

if.end53:                                         ; preds = %land.lhs.true35, %land.lhs.true31, %if.end27
  %36 = load ptr, ptr %ext.addr, align 8
  %flags54 = getelementptr inbounds %struct.hs_expr_ext, ptr %36, i32 0, i32 0
  %37 = load i64, ptr %flags54, align 8
  %and55 = and i64 %37, 8
  %tobool56 = icmp ne i64 %and55, 0
  br i1 %tobool56, label %land.lhs.true57, label %if.end76

land.lhs.true57:                                  ; preds = %if.end53
  %38 = load ptr, ptr %ext.addr, align 8
  %flags58 = getelementptr inbounds %struct.hs_expr_ext, ptr %38, i32 0, i32 0
  %39 = load i64, ptr %flags58, align 8
  %and59 = and i64 %39, 16
  %tobool60 = icmp ne i64 %and59, 0
  br i1 %tobool60, label %if.then61, label %if.end76

if.then61:                                        ; preds = %land.lhs.true57
  store i1 true, ptr %cleanup.isactive69, align 1
  %exception62 = call ptr @__cxa_allocate_exception(i64 48) #2
  call void @_ZNSaIcEC1Ev(ptr noundef nonnull align 1 dereferenceable(1) %ref.tmp64) #2
  invoke void @_ZNSt7__cxx1112basic_stringIcSt11char_traitsIcESaIcEEC2IS3_EEPKcRKS3_(ptr noundef nonnull align 8 dereferenceable(32) %ref.tmp63, ptr noundef @.str.29, ptr noundef nonnull align 1 dereferenceable(1) %ref.tmp64)
          to label %invoke.cont66 unwind label %lpad65

invoke.cont66:                                    ; preds = %if.then61
  invoke void @_ZN3ue212CompileErrorC1ERKNSt7__cxx1112basic_stringIcSt11char_traitsIcESaIcEEE(ptr noundef nonnull align 8 dereferenceable(48) %exception62, ptr noundef nonnull align 8 dereferenceable(32) %ref.tmp63)
          to label %invoke.cont68 unwind label %lpad67

invoke.cont68:                                    ; preds = %invoke.cont66
  store i1 false, ptr %cleanup.isactive69, align 1
  invoke void @__cxa_throw(ptr %exception62, ptr @_ZTIN3ue212CompileErrorE, ptr @_ZN3ue212CompileErrorD1Ev) #14
          to label %unreachable unwind label %lpad67

lpad65:                                           ; preds = %if.then61
  %40 = landingpad { ptr, i32 }
          cleanup
  %41 = extractvalue { ptr, i32 } %40, 0
  store ptr %41, ptr %exn.slot, align 8
  %42 = extractvalue { ptr, i32 } %40, 1
  store i32 %42, ptr %ehselector.slot, align 4
  br label %ehcleanup71

lpad67:                                           ; preds = %invoke.cont68, %invoke.cont66
  %43 = landingpad { ptr, i32 }
          cleanup
  %44 = extractvalue { ptr, i32 } %43, 0
  store ptr %44, ptr %exn.slot, align 8
  %45 = extractvalue { ptr, i32 } %43, 1
  store i32 %45, ptr %ehselector.slot, align 4
  call void @_ZNSt7__cxx1112basic_stringIcSt11char_traitsIcESaIcEED1Ev(ptr noundef nonnull align 8 dereferenceable(32) %ref.tmp63) #2
  br label %ehcleanup71

ehcleanup71:                                      ; preds = %lpad67, %lpad65
  call void @_ZNSaIcED1Ev(ptr noundef nonnull align 1 dereferenceable(1) %ref.tmp64) #2
  %cleanup.is_active73 = load i1, ptr %cleanup.isactive69, align 1
  br i1 %cleanup.is_active73, label %cleanup.action74, label %cleanup.done75

cleanup.action74:                                 ; preds = %ehcleanup71
  call void @__cxa_free_exception(ptr %exception62) #2
  br label %cleanup.done75

cleanup.done75:                                   ; preds = %cleanup.action74, %ehcleanup71
  br label %eh.resume

if.end76:                                         ; preds = %land.lhs.true57, %if.end53
  ret void

eh.resume:                                        ; preds = %cleanup.done75, %cleanup.done52, %cleanup.done26, %cleanup.done
  %exn = load ptr, ptr %exn.slot, align 8
  %sel = load i32, ptr %ehselector.slot, align 4
  %lpad.val = insertvalue { ptr, i32 } poison, ptr %exn, 0
  %lpad.val77 = insertvalue { ptr, i32 } %lpad.val, i32 %sel, 1
  resume { ptr, i32 } %lpad.val77

unreachable:                                      ; preds = %invoke.cont68, %invoke.cont45, %invoke.cont19, %invoke.cont3
  unreachable
}