; Function Attrs: mustprogress uwtable
define internal fastcc void @_ZN3ue2L11validateExtERK11hs_expr_ext(ptr nocapture noundef nonnull readonly align 8 dereferenceable(40) %ext) unnamed_addr #2 personality ptr @__gxx_personality_v0 {
entry:
  %ref.tmp = alloca %"class.std::__cxx11::basic_string", align 8
  %ref.tmp1 = alloca %"class.std::allocator", align 1
  %ref.tmp14 = alloca %"class.std::__cxx11::basic_string", align 8
  %ref.tmp15 = alloca %"class.std::allocator", align 1
  %ref.tmp40 = alloca %"class.std::__cxx11::basic_string", align 8
  %ref.tmp41 = alloca %"class.std::allocator", align 1
  %ref.tmp63 = alloca %"class.std::__cxx11::basic_string", align 8
  %ref.tmp64 = alloca %"class.std::allocator", align 1
  %0 = load i64, ptr %ext, align 8
  %tobool.not = icmp ult i64 %0, 32
  br i1 %tobool.not, label %if.end, label %if.then

if.then:                                          ; preds = %entry
  %exception = tail call ptr @__cxa_allocate_exception(i64 48) #16
  call void @_ZNSaIcEC1Ev(ptr noundef nonnull align 1 dereferenceable(1) %ref.tmp1) #16
  invoke void @_ZNSt7__cxx1112basic_stringIcSt11char_traitsIcESaIcEEC2IS3_EEPKcRKS3_(ptr noundef nonnull align 8 dereferenceable(32) %ref.tmp, ptr noundef nonnull @.str.26, ptr noundef nonnull align 1 dereferenceable(1) %ref.tmp1)
          to label %invoke.cont unwind label %ehcleanup.thread

invoke.cont:                                      ; preds = %if.then
  invoke void @_ZN3ue212CompileErrorC1ERKNSt7__cxx1112basic_stringIcSt11char_traitsIcESaIcEEE(ptr noundef nonnull align 8 dereferenceable(48) %exception, ptr noundef nonnull align 8 dereferenceable(32) %ref.tmp)
          to label %invoke.cont3 unwind label %ehcleanup

invoke.cont3:                                     ; preds = %invoke.cont
  invoke void @__cxa_throw(ptr nonnull %exception, ptr nonnull @_ZTIN3ue212CompileErrorE, ptr nonnull @_ZN3ue212CompileErrorD1Ev) #17
          to label %unreachable unwind label %ehcleanup

ehcleanup.thread:                                 ; preds = %if.then
  %1 = landingpad { ptr, i32 }
          cleanup
  br label %eh.resume.sink.split.sink.split

ehcleanup:                                        ; preds = %invoke.cont, %invoke.cont3
  %cleanup.isactive.0 = phi i1 [ false, %invoke.cont3 ], [ true, %invoke.cont ]
  %2 = landingpad { ptr, i32 }
          cleanup
  call void @_ZNSt7__cxx1112basic_stringIcSt11char_traitsIcESaIcEED1Ev(ptr noundef nonnull align 8 dereferenceable(32) %ref.tmp) #16
  call void @_ZNSaIcED1Ev(ptr noundef nonnull align 1 dereferenceable(1) %ref.tmp1) #16
  br i1 %cleanup.isactive.0, label %eh.resume.sink.split, label %eh.resume

if.end:                                           ; preds = %entry
  %3 = and i64 %0, 3
  %or.cond.not = icmp eq i64 %3, 3
  br i1 %or.cond.not, label %land.lhs.true11, label %if.end27

land.lhs.true11:                                  ; preds = %if.end
  %min_offset = getelementptr inbounds i8, ptr %ext, i64 8
  %4 = load i64, ptr %min_offset, align 8
  %max_offset = getelementptr inbounds i8, ptr %ext, i64 16
  %5 = load i64, ptr %max_offset, align 8
  %cmp = icmp ugt i64 %4, %5
  br i1 %cmp, label %if.then12, label %if.end27

if.then12:                                        ; preds = %land.lhs.true11
  %exception13 = tail call ptr @__cxa_allocate_exception(i64 48) #16
  call void @_ZNSaIcEC1Ev(ptr noundef nonnull align 1 dereferenceable(1) %ref.tmp15) #16
  invoke void @_ZNSt7__cxx1112basic_stringIcSt11char_traitsIcESaIcEEC2IS3_EEPKcRKS3_(ptr noundef nonnull align 8 dereferenceable(32) %ref.tmp14, ptr noundef nonnull @.str.27, ptr noundef nonnull align 1 dereferenceable(1) %ref.tmp15)
          to label %invoke.cont17 unwind label %ehcleanup22.thread

invoke.cont17:                                    ; preds = %if.then12
  invoke void @_ZN3ue212CompileErrorC1ERKNSt7__cxx1112basic_stringIcSt11char_traitsIcESaIcEEE(ptr noundef nonnull align 8 dereferenceable(48) %exception13, ptr noundef nonnull align 8 dereferenceable(32) %ref.tmp14)
          to label %invoke.cont19 unwind label %ehcleanup22

invoke.cont19:                                    ; preds = %invoke.cont17
  invoke void @__cxa_throw(ptr nonnull %exception13, ptr nonnull @_ZTIN3ue212CompileErrorE, ptr nonnull @_ZN3ue212CompileErrorD1Ev) #17
          to label %unreachable unwind label %ehcleanup22

ehcleanup22.thread:                               ; preds = %if.then12
  %6 = landingpad { ptr, i32 }
          cleanup
  br label %eh.resume.sink.split.sink.split

ehcleanup22:                                      ; preds = %invoke.cont17, %invoke.cont19
  %cleanup.isactive20.0 = phi i1 [ false, %invoke.cont19 ], [ true, %invoke.cont17 ]
  %7 = landingpad { ptr, i32 }
          cleanup
  call void @_ZNSt7__cxx1112basic_stringIcSt11char_traitsIcESaIcEED1Ev(ptr noundef nonnull align 8 dereferenceable(32) %ref.tmp14) #16
  call void @_ZNSaIcED1Ev(ptr noundef nonnull align 1 dereferenceable(1) %ref.tmp15) #16
  br i1 %cleanup.isactive20.0, label %eh.resume.sink.split, label %eh.resume

if.end27:                                         ; preds = %land.lhs.true11, %if.end
  %8 = and i64 %0, 6
  %or.cond19.not = icmp eq i64 %8, 6
  br i1 %or.cond19.not, label %land.lhs.true35, label %if.end53

land.lhs.true35:                                  ; preds = %if.end27
  %min_length = getelementptr inbounds i8, ptr %ext, i64 24
  %9 = load i64, ptr %min_length, align 8
  %max_offset36 = getelementptr inbounds i8, ptr %ext, i64 16
  %10 = load i64, ptr %max_offset36, align 8
  %cmp37 = icmp ugt i64 %9, %10
  br i1 %cmp37, label %if.then38, label %if.end53

if.then38:                                        ; preds = %land.lhs.true35
  %exception39 = tail call ptr @__cxa_allocate_exception(i64 48) #16
  call void @_ZNSaIcEC1Ev(ptr noundef nonnull align 1 dereferenceable(1) %ref.tmp41) #16
  invoke void @_ZNSt7__cxx1112basic_stringIcSt11char_traitsIcESaIcEEC2IS3_EEPKcRKS3_(ptr noundef nonnull align 8 dereferenceable(32) %ref.tmp40, ptr noundef nonnull @.str.28, ptr noundef nonnull align 1 dereferenceable(1) %ref.tmp41)
          to label %invoke.cont43 unwind label %ehcleanup48.thread

invoke.cont43:                                    ; preds = %if.then38
  invoke void @_ZN3ue212CompileErrorC1ERKNSt7__cxx1112basic_stringIcSt11char_traitsIcESaIcEEE(ptr noundef nonnull align 8 dereferenceable(48) %exception39, ptr noundef nonnull align 8 dereferenceable(32) %ref.tmp40)
          to label %invoke.cont45 unwind label %ehcleanup48

invoke.cont45:                                    ; preds = %invoke.cont43
  invoke void @__cxa_throw(ptr nonnull %exception39, ptr nonnull @_ZTIN3ue212CompileErrorE, ptr nonnull @_ZN3ue212CompileErrorD1Ev) #17
          to label %unreachable unwind label %ehcleanup48

ehcleanup48.thread:                               ; preds = %if.then38
  %11 = landingpad { ptr, i32 }
          cleanup
  br label %eh.resume.sink.split.sink.split

ehcleanup48:                                      ; preds = %invoke.cont43, %invoke.cont45
  %cleanup.isactive46.0 = phi i1 [ false, %invoke.cont45 ], [ true, %invoke.cont43 ]
  %12 = landingpad { ptr, i32 }
          cleanup
  call void @_ZNSt7__cxx1112basic_stringIcSt11char_traitsIcESaIcEED1Ev(ptr noundef nonnull align 8 dereferenceable(32) %ref.tmp40) #16
  call void @_ZNSaIcED1Ev(ptr noundef nonnull align 1 dereferenceable(1) %ref.tmp41) #16
  br i1 %cleanup.isactive46.0, label %eh.resume.sink.split, label %eh.resume

if.end53:                                         ; preds = %land.lhs.true35, %if.end27
  %and55 = and i64 %0, 8
  %tobool56.not = icmp eq i64 %and55, 0
  %tobool60.not = icmp ult i64 %0, 16
  %or.cond20 = or i1 %tobool60.not, %tobool56.not
  br i1 %or.cond20, label %if.end76, label %if.then61

if.then61:                                        ; preds = %if.end53
  %exception62 = tail call ptr @__cxa_allocate_exception(i64 48) #16
  call void @_ZNSaIcEC1Ev(ptr noundef nonnull align 1 dereferenceable(1) %ref.tmp64) #16
  invoke void @_ZNSt7__cxx1112basic_stringIcSt11char_traitsIcESaIcEEC2IS3_EEPKcRKS3_(ptr noundef nonnull align 8 dereferenceable(32) %ref.tmp63, ptr noundef nonnull @.str.29, ptr noundef nonnull align 1 dereferenceable(1) %ref.tmp64)
          to label %invoke.cont66 unwind label %ehcleanup71.thread

invoke.cont66:                                    ; preds = %if.then61
  invoke void @_ZN3ue212CompileErrorC1ERKNSt7__cxx1112basic_stringIcSt11char_traitsIcESaIcEEE(ptr noundef nonnull align 8 dereferenceable(48) %exception62, ptr noundef nonnull align 8 dereferenceable(32) %ref.tmp63)
          to label %invoke.cont68 unwind label %ehcleanup71

invoke.cont68:                                    ; preds = %invoke.cont66
  invoke void @__cxa_throw(ptr nonnull %exception62, ptr nonnull @_ZTIN3ue212CompileErrorE, ptr nonnull @_ZN3ue212CompileErrorD1Ev) #17
          to label %unreachable unwind label %ehcleanup71

ehcleanup71.thread:                               ; preds = %if.then61
  %13 = landingpad { ptr, i32 }
          cleanup
  br label %eh.resume.sink.split.sink.split

ehcleanup71:                                      ; preds = %invoke.cont66, %invoke.cont68
  %cleanup.isactive69.0 = phi i1 [ false, %invoke.cont68 ], [ true, %invoke.cont66 ]
  %14 = landingpad { ptr, i32 }
          cleanup
  call void @_ZNSt7__cxx1112basic_stringIcSt11char_traitsIcESaIcEED1Ev(ptr noundef nonnull align 8 dereferenceable(32) %ref.tmp63) #16
  call void @_ZNSaIcED1Ev(ptr noundef nonnull align 1 dereferenceable(1) %ref.tmp64) #16
  br i1 %cleanup.isactive69.0, label %eh.resume.sink.split, label %eh.resume

if.end76:                                         ; preds = %if.end53
  ret void

eh.resume.sink.split.sink.split:                  ; preds = %ehcleanup.thread, %ehcleanup22.thread, %ehcleanup48.thread, %ehcleanup71.thread
  %ref.tmp64.sink = phi ptr [ %ref.tmp64, %ehcleanup71.thread ], [ %ref.tmp41, %ehcleanup48.thread ], [ %ref.tmp15, %ehcleanup22.thread ], [ %ref.tmp1, %ehcleanup.thread ]
  %exception62.sink.ph = phi ptr [ %exception62, %ehcleanup71.thread ], [ %exception39, %ehcleanup48.thread ], [ %exception13, %ehcleanup22.thread ], [ %exception, %ehcleanup.thread ]
  %.pn16.pn.ph.ph = phi { ptr, i32 } [ %13, %ehcleanup71.thread ], [ %11, %ehcleanup48.thread ], [ %6, %ehcleanup22.thread ], [ %1, %ehcleanup.thread ]
  call void @_ZNSaIcED1Ev(ptr noundef nonnull align 1 dereferenceable(1) %ref.tmp64.sink) #16
  br label %eh.resume.sink.split

eh.resume.sink.split:                             ; preds = %eh.resume.sink.split.sink.split, %ehcleanup71, %ehcleanup48, %ehcleanup22, %ehcleanup
  %exception62.sink = phi ptr [ %exception, %ehcleanup ], [ %exception13, %ehcleanup22 ], [ %exception39, %ehcleanup48 ], [ %exception62, %ehcleanup71 ], [ %exception62.sink.ph, %eh.resume.sink.split.sink.split ]
  %.pn16.pn.ph = phi { ptr, i32 } [ %2, %ehcleanup ], [ %7, %ehcleanup22 ], [ %12, %ehcleanup48 ], [ %14, %ehcleanup71 ], [ %.pn16.pn.ph.ph, %eh.resume.sink.split.sink.split ]
  call void @__cxa_free_exception(ptr %exception62.sink) #16
  br label %eh.resume

eh.resume:                                        ; preds = %eh.resume.sink.split, %ehcleanup71, %ehcleanup48, %ehcleanup22, %ehcleanup
  %.pn16.pn = phi { ptr, i32 } [ %2, %ehcleanup ], [ %7, %ehcleanup22 ], [ %12, %ehcleanup48 ], [ %14, %ehcleanup71 ], [ %.pn16.pn.ph, %eh.resume.sink.split ]
  resume { ptr, i32 } %.pn16.pn

unreachable:                                      ; preds = %invoke.cont68, %invoke.cont45, %invoke.cont19, %invoke.cont3
  unreachable
}